Certificate:
    Data:
        Version: 3 (0x2)
        Serial Number:
            9f:dc:f7:94:98:05:43:4c
        Signature Algorithm: sha1WithRSAEncryption
        Issuer: C=JP, ST=Shimane, L=Matz-e city, O=Ruby Core Team, CN=Ruby Test CA/emailAddress=security@ruby-lang.org
        Validity
            Not Before: Dec 23 10:21:33 2010 GMT
            Not After : Jan  1 10:21:33 2014 GMT
        Subject: C=JP, ST=Shimane, L=Matz-e city, O=Ruby Core Team, CN=Ruby Test CA/emailAddress=security@ruby-lang.org
        Subject Public Key Info:
            Public Key Algorithm: rsaEncryption
                Public-Key: (1024 bit)
                Modulus:
                    00:ce:be:2c:9f:47:ba:db:9c:9c:5b:f0:38:3b:f3:
                    74:20:37:76:23:9f:84:1c:81:90:b4:3e:00:20:34:
                    98:7e:81:69:50:a1:c3:65:96:ea:fa:00:da:8c:cc:
                    53:3f:ba:3c:d0:50:7a:5a:b4:6b:ac:d3:2e:18:ca:
                    2a:69:b3:6a:6f:38:c2:32:a8:06:b6:0a:30:a9:ee:
                    03:38:e9:05:a5:19:23:54:a8:3c:b9:08:ad:2b:72:
                    23:df:93:22:c4:46:a8:ea:f1:a6:e9:30:4a:3f:83:
                    39:e9:62:8e:8b:a3:5e:67:89:1d:7c:75:de:05:aa:
                    58:b1:b7:79:7c:10:80:6d:87
                Exponent: 65537 (0x10001)
        X509v3 extensions:
            X509v3 Subject Key Identifier: 
                41:C9:49:37:B1:FA:61:E3:BA:D7:19:3D:D9:DA:8C:B9:82:C9:B4:6A
            X509v3 Authority Key Identifier: 
                keyid:41:C9:49:37:B1:FA:61:E3:BA:D7:19:3D:D9:DA:8C:B9:82:C9:B4:6A

            X509v3 Basic Constraints: 
                CA:TRUE
    Signature Algorithm: sha1WithRSAEncryption
        86:00:33:b9:dd:ff:5f:83:59:5f:c3:29:3c:d7:11:db:10:b3:
        d7:d1:70:fb:0a:c6:74:85:c6:ea:e1:15:c4:92:f8:0e:11:cc:
        ff:a6:3c:31:c2:2c:66:d8:fe:63:93:9f:b0:97:e6:f5:bc:5c:
        80:68:96:5d:eb:77:b9:23:dd:68:a7:49:03:ff:22:48:55:f1:
        39:7c:20:21:ff:64:52:e1:f6:cf:3c:b3:4d:2c:5c:03:62:ea:
        c5:49:99:07:fa:8d:ff:7b:c2:75:0c:ca:24:b5:0b:f5:b7:57:
        3a:10:f0:8a:bb:9a:e8:92:4d:d5:6f:c2:a2:29:36:61:78:a4:
        dc:7b
-----BEGIN CERTIFICATE-----
MIIC6DCCAlGgAwIBAgIJAJ/c95SYBUNMMA0GCSqGSIb3DQEBBQUAMIGMMQswCQYD
VQQGEwJKUDEQMA4GA1UECAwHU2hpbWFuZTEUMBIGA1UEBwwLTWF0ei1lIGNpdHkx
FzAVBgNVBAoMDlJ1YnkgQ29yZSBUZWFtMRUwEwYDVQQDDAxSdWJ5IFRlc3QgQ0Ex
JTAjBgkqhkiG9w0BCQEWFnNlY3VyaXR5QHJ1YnktbGFuZy5vcmcwHhcNMTAxMjIz
MTAyMTMzWhcNMTQwMTAxMTAyMTMzWjCBjDELMAkGA1UEBhMCSlAxEDAOBgNVBAgM
B1NoaW1hbmUxFDASBgNVBAcMC01hdHotZSBjaXR5MRcwFQYDVQQKDA5SdWJ5IENv
cmUgVGVhbTEVMBMGA1UEAwwMUnVieSBUZXN0IENBMSUwIwYJKoZIhvcNAQkBFhZz
ZWN1cml0eUBydWJ5LWxhbmcub3JnMIGfMA0GCSqGSIb3DQEBAQUAA4GNADCBiQKB
gQDOviyfR7rbnJxb8Dg783QgN3Yjn4QcgZC0PgAgNJh+gWlQocNllur6ANqMzFM/
ujzQUHpatGus0y4Yyipps2pvOMIyqAa2CjCp7gM46QWlGSNUqDy5CK0rciPfkyLE
Rqjq8abpMEo/gznpYo6Lo15niR18dd4Fqlixt3l8EIBthwIDAQABo1AwTjAdBgNV
HQ4EFgQUQclJN7H6YeO61xk92dqMuYLJtGowHwYDVR0jBBgwFoAUQclJN7H6YeO6
1xk92dqMuYLJtGowDAYDVR0TBAUwAwEB/zANBgkqhkiG9w0BAQUFAAOBgQCGADO5
3f9fg1lfwyk81xHbELPX0XD7CsZ0hcbq4RXEkvgOEcz/pjwxwixm2P5jk5+wl+b1
vFyAaJZd63e5I91op0kD/yJIVfE5fCAh/2RS4fbPPLNNLFwDYurFSZkH+o3/e8J1
DMoktQv1t1c6EPCKu5rokk3Vb8KiKTZheKTcew==
-----END CERTIFICATE-----
