Certificate:
    Data:
        Version: 3 (0x2)
        Serial Number: 16263805969935345171 (0xe1b4a55c3ddfa613)
    Signature Algorithm: sha256WithRSAEncryption
        Issuer: C=SE, ST=Stockholm, L=Stockholm, O=Oracle, OU=MySQL, CN=CA
        Validity
            Not Before: Dec  5 04:48:11 2014 GMT
            Not After : Dec  1 04:48:11 2030 GMT
        Subject: C=SE, ST=Stockholm, L=Stockholm, O=Oracle, OU=MySQL, CN=CA
        Subject Public Key Info:
            Public Key Algorithm: rsaEncryption
                Public-Key: (2048 bit)
                Modulus:
                    00:b4:95:bd:24:92:73:06:22:01:13:28:0e:09:a3:
                    94:05:96:54:9d:dc:8f:83:39:f3:64:7a:31:70:f6:
                    d9:c4:14:19:75:87:a6:b1:ea:52:ed:40:54:5a:f6:
                    9c:13:8e:d8:76:8f:5a:65:a5:20:19:19:bd:51:9d:
                    ba:35:ce:9a:a9:58:0a:fc:11:6e:1d:cb:a8:f1:92:
                    79:ee:aa:fc:e3:32:5e:aa:0d:0b:23:34:95:e9:d3:
                    8e:3f:72:93:90:bc:2c:b0:04:75:4f:a4:4a:a0:32:
                    db:ac:89:ac:34:9b:d0:07:e3:81:e9:ca:5b:26:f0:
                    f5:de:fe:d5:5e:a0:54:26:dd:ec:58:07:6e:b9:e5:
                    97:f6:20:6d:d8:4a:c0:50:cc:81:e6:d2:3f:c7:47:
                    70:8b:15:89:65:71:2e:47:c3:42:76:b5:ee:16:0e:
                    26:97:6a:a3:1c:ad:90:53:50:b0:b1:6d:1d:b0:b8:
                    6d:df:3c:ee:bd:3b:87:e8:db:4d:3a:72:78:dd:db:
                    40:3d:c9:20:46:b8:4e:33:bb:76:b7:4f:b2:79:da:
                    03:cc:f9:75:c0:1d:4c:51:0a:b9:9b:25:34:50:11:
                    97:df:82:46:02:a9:bc:98:51:3e:c3:df:57:ad:b7:
                    28:be:de:65:ce:2b:f3:2c:22:f5:af:31:28:1c:ef:
                    10:09
                Exponent: 65537 (0x10001)
        X509v3 extensions:
            X509v3 Subject Key Identifier: 
                94:65:A1:A3:87:CF:BF:C1:74:BB:D8:84:97:B6:6B:EE:B2:90:73:B2
            X509v3 Authority Key Identifier: 
                keyid:94:65:A1:A3:87:CF:BF:C1:74:BB:D8:84:97:B6:6B:EE:B2:90:73:B2

            X509v3 Basic Constraints: 
                CA:TRUE
    Signature Algorithm: sha256WithRSAEncryption
         32:97:4c:af:bf:ca:e0:10:66:b7:cc:8b:0d:05:d1:d2:ca:b8:
         0c:c2:78:57:1f:f6:55:9c:74:fc:bd:31:58:05:18:bc:6d:b5:
         79:9a:22:8c:1f:da:33:ea:ef:db:e3:cb:46:bc:36:91:8b:d8:
         36:8d:06:40:c2:e9:fe:79:1b:4a:c5:70:74:6d:9d:92:2c:90:
         be:3c:a7:88:03:e4:b7:ef:f4:b0:00:34:ec:8f:d1:c3:23:2b:
         ef:bc:ff:ab:a2:0e:bc:ba:11:a5:8e:44:80:fa:d6:f4:26:66:
         84:64:2c:e3:23:62:0c:e2:ba:01:ab:5f:24:d6:9d:7e:9c:7b:
         f4:5d:0e:ba:64:35:6e:a5:fa:98:0c:57:f3:72:e8:3e:2e:ce:
         b3:f9:e3:fa:ee:aa:79:f9:06:01:19:b2:b3:28:ff:f4:d6:bb:
         17:bb:a6:a0:e0:45:23:f3:61:40:31:5c:a3:ee:88:1c:00:31:
         54:96:f9:71:37:b5:7f:66:6a:af:04:94:09:39:99:b3:88:86:
         9e:bb:d6:36:24:24:f4:37:2c:a6:6c:0b:35:2e:bb:40:af:a7:
         64:8a:7f:f2:74:e3:94:0c:32:bd:31:3d:d9:79:68:0f:1e:4b:
         17:c0:4e:df:85:3c:f0:84:df:58:f1:d2:4d:2f:ad:ff:1b:d7:
         c8:9b:fe:dc
-----BEGIN CERTIFICATE-----
MIIDmTCCAoGgAwIBAgIJAOG0pVw936YTMA0GCSqGSIb3DQEBCwUAMGMxCzAJBgNV
BAYTAlNFMRIwEAYDVQQIDAlTdG9ja2hvbG0xEjAQBgNVBAcMCVN0b2NraG9sbTEP
MA0GA1UECgwGT3JhY2xlMQ4wDAYDVQQLDAVNeVNRTDELMAkGA1UEAwwCQ0EwHhcN
MTQxMjA1MDQ0ODExWhcNMzAxMjAxMDQ0ODExWjBjMQswCQYDVQQGEwJTRTESMBAG
A1UECAwJU3RvY2tob2xtMRIwEAYDVQQHDAlTdG9ja2hvbG0xDzANBgNVBAoMBk9y
YWNsZTEOMAwGA1UECwwFTXlTUUwxCzAJBgNVBAMMAkNBMIIBIjANBgkqhkiG9w0B
AQEFAAOCAQ8AMIIBCgKCAQEAtJW9JJJzBiIBEygOCaOUBZZUndyPgznzZHoxcPbZ
xBQZdYemsepS7UBUWvacE47Ydo9aZaUgGRm9UZ26Nc6aqVgK/BFuHcuo8ZJ57qr8
4zJeqg0LIzSV6dOOP3KTkLwssAR1T6RKoDLbrImsNJvQB+OB6cpbJvD13v7VXqBU
Jt3sWAduueWX9iBt2ErAUMyB5tI/x0dwixWJZXEuR8NCdrXuFg4ml2qjHK2QU1Cw
sW0dsLht3zzuvTuH6NtNOnJ43dtAPckgRrhOM7t2t0+yedoDzPl1wB1MUQq5myU0
UBGX34JGAqm8mFE+w99Xrbcovt5lzivzLCL1rzEoHO8QCQIDAQABo1AwTjAdBgNV
HQ4EFgQUlGWho4fPv8F0u9iEl7Zr7rKQc7IwHwYDVR0jBBgwFoAUlGWho4fPv8F0
u9iEl7Zr7rKQc7IwDAYDVR0TBAUwAwEB/zANBgkqhkiG9w0BAQsFAAOCAQEAMpdM
r7/K4BBmt8yLDQXR0sq4DMJ4Vx/2VZx0/L0xWAUYvG21eZoijB/aM+rv2+PLRrw2
kYvYNo0GQMLp/nkbSsVwdG2dkiyQvjyniAPkt+/0sAA07I/RwyMr77z/q6IOvLoR
pY5EgPrW9CZmhGQs4yNiDOK6AatfJNadfpx79F0OumQ1bqX6mAxX83LoPi7Os/nj
+u6qefkGARmysyj/9Na7F7umoOBFI/NhQDFco+6IHAAxVJb5cTe1f2ZqrwSUCTmZ
s4iGnrvWNiQk9DcspmwLNS67QK+nZIp/8nTjlAwyvTE92XloDx5LF8BO34U88ITf
WPHSTS+t/xvXyJv+3A==
-----END CERTIFICATE-----
