Certificate:
    Data:
        Version: 3 (0x2)
        Serial Number: 16263805969935345173 (0xe1b4a55c3ddfa615)
    Signature Algorithm: sha256WithRSAEncryption
        Issuer: C=SE, ST=Stockholm, L=Stockholm, O=Oracle, OU=MySQL, CN=CA
        Validity
            Not Before: Dec  5 04:49:23 2014 GMT
            Not After : Dec  1 04:49:23 2029 GMT
        Subject: C=SE, ST=Stockholm, L=Stockholm, O=Oracle, OU=MySQL, CN=Client
        Subject Public Key Info:
            Public Key Algorithm: rsaEncryption
                Public-Key: (2048 bit)
                Modulus:
                    00:c8:d1:a1:fe:a4:8c:f3:1b:17:71:1b:74:35:11:
                    e0:0e:6c:40:0a:fb:c0:f7:f0:eb:bb:c9:1d:a1:c7:
                    d7:b0:8a:f6:f1:cf:fa:6b:d0:79:64:eb:bb:69:a5:
                    0d:80:06:df:52:14:d2:85:32:cf:bf:ce:2a:47:28:
                    5b:cd:0b:28:ab:bb:07:33:d5:8b:d3:b4:72:c4:a6:
                    b5:cc:37:b9:03:a8:78:56:25:58:1f:17:30:7c:d1:
                    0a:bb:ec:3c:a3:03:90:97:99:92:49:ae:b3:57:96:
                    5c:1a:e9:e8:02:23:ae:c8:c9:05:50:63:e5:77:a1:
                    9a:73:06:74:0e:46:50:28:d8:c9:4f:c4:1c:37:b8:
                    52:18:0b:af:19:2b:d4:e5:66:74:a4:f3:f0:da:09:
                    30:f7:bc:0c:c9:9b:ce:57:06:04:27:e5:a1:2f:2b:
                    a0:ba:b7:99:69:9d:46:fc:21:b6:45:81:9d:b2:3d:
                    2f:76:15:78:b5:33:62:ac:1e:6b:66:dd:27:61:0a:
                    47:02:20:2b:57:bb:32:20:dd:06:4c:76:a4:9b:72:
                    42:4c:9c:2c:76:72:12:1f:4b:df:1e:11:1f:a9:06:
                    54:dc:88:12:b0:49:d5:40:83:ef:7e:48:43:86:7a:
                    37:a6:c1:d7:9b:fe:08:34:98:e0:54:3c:30:4f:79:
                    15:29
                Exponent: 65537 (0x10001)
        X509v3 extensions:
            X509v3 Basic Constraints: 
                CA:FALSE
            Netscape Comment: 
                OpenSSL Generated Certificate
            X509v3 Subject Key Identifier: 
                26:0C:90:BC:97:12:9E:43:BB:5E:FE:EB:A9:66:B3:C3:EE:B2:18:CB
            X509v3 Authority Key Identifier: 
                keyid:94:65:A1:A3:87:CF:BF:C1:74:BB:D8:84:97:B6:6B:EE:B2:90:73:B2

    Signature Algorithm: sha256WithRSAEncryption
         3e:3c:1f:6c:5b:83:d1:71:15:f5:45:52:fc:7f:67:bc:af:c5:
         92:f5:74:78:13:43:3c:fe:b5:61:bf:00:47:43:45:a0:b9:dd:
         a1:10:0c:29:69:2a:6f:7d:67:3d:1e:09:b5:15:74:bf:73:11:
         e6:e9:09:b6:6b:b5:cc:1e:06:fd:bd:3a:11:d3:44:bd:ca:7a:
         a1:f1:09:43:fc:bf:83:89:3a:b1:18:40:f3:cf:6d:12:ef:6e:
         0c:b7:a4:99:03:8a:4f:0c:3c:2c:23:78:35:2a:99:ea:de:9c:
         1b:e8:8d:19:fb:44:80:13:89:81:c5:05:4b:a7:66:6b:c0:31:
         41:f0:6c:60:aa:ec:d3:4c:ff:c1:3b:d5:bb:0d:42:7d:37:5e:
         80:e7:9c:7e:60:90:0f:a4:4e:70:20:9c:b1:e4:1b:70:65:b0:
         ef:bb:41:16:ed:ad:46:ce:34:d3:02:3d:dd:e2:50:fa:3c:5d:
         f0:e2:71:f8:9a:ef:a3:32:25:c5:8e:64:f4:46:e1:f4:c0:69:
         d2:34:56:8d:d9:c2:6e:b6:55:3b:6a:4d:b6:d2:84:ab:85:7b:
         cb:fd:b4:73:40:ba:5d:49:e2:0d:39:77:17:01:49:bb:72:8b:
         3a:c9:b1:e2:cd:13:d2:9c:ce:7d:6c:a8:f0:32:c9:a4:af:56:
         6f:8a:e6:88
-----BEGIN CERTIFICATE-----
MIIDyDCCArCgAwIBAgIJAOG0pVw936YVMA0GCSqGSIb3DQEBCwUAMGMxCzAJBgNV
BAYTAlNFMRIwEAYDVQQIDAlTdG9ja2hvbG0xEjAQBgNVBAcMCVN0b2NraG9sbTEP
MA0GA1UECgwGT3JhY2xlMQ4wDAYDVQQLDAVNeVNRTDELMAkGA1UEAwwCQ0EwHhcN
MTQxMjA1MDQ0OTIzWhcNMjkxMjAxMDQ0OTIzWjBnMQswCQYDVQQGEwJTRTESMBAG
A1UECAwJU3RvY2tob2xtMRIwEAYDVQQHDAlTdG9ja2hvbG0xDzANBgNVBAoMBk9y
YWNsZTEOMAwGA1UECwwFTXlTUUwxDzANBgNVBAMMBkNsaWVudDCCASIwDQYJKoZI
hvcNAQEBBQADggEPADCCAQoCggEBAMjRof6kjPMbF3EbdDUR4A5sQAr7wPfw67vJ
HaHH17CK9vHP+mvQeWTru2mlDYAG31IU0oUyz7/OKkcoW80LKKu7BzPVi9O0csSm
tcw3uQOoeFYlWB8XMHzRCrvsPKMDkJeZkkmus1eWXBrp6AIjrsjJBVBj5XehmnMG
dA5GUCjYyU/EHDe4UhgLrxkr1OVmdKTz8NoJMPe8DMmbzlcGBCfloS8roLq3mWmd
RvwhtkWBnbI9L3YVeLUzYqwea2bdJ2EKRwIgK1e7MiDdBkx2pJtyQkycLHZyEh9L
3x4RH6kGVNyIErBJ1UCD735IQ4Z6N6bB15v+CDSY4FQ8ME95FSkCAwEAAaN7MHkw
CQYDVR0TBAIwADAsBglghkgBhvhCAQ0EHxYdT3BlblNTTCBHZW5lcmF0ZWQgQ2Vy
dGlmaWNhdGUwHQYDVR0OBBYEFCYMkLyXEp5Du17+66lms8PushjLMB8GA1UdIwQY
MBaAFJRloaOHz7/BdLvYhJe2a+6ykHOyMA0GCSqGSIb3DQEBCwUAA4IBAQA+PB9s
W4PRcRX1RVL8f2e8r8WS9XR4E0M8/rVhvwBHQ0Wgud2hEAwpaSpvfWc9Hgm1FXS/
cxHm6Qm2a7XMHgb9vToR00S9ynqh8QlD/L+DiTqxGEDzz20S724Mt6SZA4pPDDws
I3g1Kpnq3pwb6I0Z+0SAE4mBxQVLp2ZrwDFB8GxgquzTTP/BO9W7DUJ9N16A55x+
YJAPpE5wIJyx5BtwZbDvu0EW7a1GzjTTAj3d4lD6PF3w4nH4mu+jMiXFjmT0RuH0
wGnSNFaN2cJutlU7ak220oSrhXvL/bRzQLpdSeINOXcXAUm7cos6ybHizRPSnM59
bKjwMsmkr1ZviuaI
-----END CERTIFICATE-----
