Certificate Request:
    Data:
        Version: 1 (0x0)
        Subject: C = UK, ST = England, L = London, CN = test.php.net, emailAddress = test.php@php.net
        Subject Public Key Info:
            Public Key Algorithm: rsaEncryption
                Public-Key: (2048 bit)
                Modulus:
                    00:ad:b5:26:55:6d:58:fa:b2:73:65:10:b7:0d:80:
                    74:91:d2:20:be:4e:cc:01:d6:b2:ef:cc:9b:18:f3:
                    c3:85:59:5b:01:be:02:8d:66:da:3e:ce:27:c9:40:
                    93:12:df:4a:54:6d:07:ee:95:c7:c4:36:d6:4a:c0:
                    b6:f7:be:33:76:fa:a5:3f:42:f6:a2:9d:7f:33:64:
                    ad:79:37:06:08:13:9d:c0:61:f6:8c:e4:55:01:92:
                    fc:fd:66:d3:39:ff:48:a4:a0:0c:ef:ba:0d:d7:8b:
                    1c:b3:23:a5:40:12:6a:86:1f:b1:ac:b8:3c:92:c0:
                    76:74:ea:2c:e7:8c:83:aa:8d:13:ab:b4:79:b6:57:
                    55:f9:a9:4a:65:75:a5:26:7a:91:09:f1:6e:c6:fa:
                    ad:7d:62:39:9c:64:c0:79:d5:59:86:f8:d0:7c:b4:
                    10:82:e8:df:5c:7a:05:5a:81:9b:5e:7d:9b:bb:37:
                    f0:28:62:44:7a:a5:8f:6d:03:99:17:f1:5e:38:93:
                    e5:80:e0:61:84:36:f7:04:01:4d:54:2b:4c:de:4e:
                    f5:45:b9:63:e7:8a:4d:77:7c:af:ab:5e:76:c6:c8:
                    05:77:4a:37:b3:5e:5f:b9:2c:19:81:ea:d4:8d:e1:
                    2e:c3:fc:13:2b:d9:3b:bf:2a:7e:32:b2:10:1d:09:
                    8f:75
                Exponent: 65537 (0x10001)
        Attributes:
            streetAddress            :
            facsimileTelephoneNumber :
            postalCode               :N11
            telephoneNumber          :012345678
            name                     :Organisation
            1.3.6.1.4.1.11278.1150.2.1:11112222
            1.3.6.1.4.1.11278.1150.2.2:12345678
            emailAddress             :info@example.com
            Requested Extensions:
                X509v3 Basic Constraints: 
                    CA:FALSE
    Signature Algorithm: sha256WithRSAEncryption
    Signature Value:
        0a:0f:23:fb:16:63:44:0a:3c:c1:01:b9:1a:7a:30:77:2f:5a:
        04:84:c7:09:24:41:f4:49:41:99:58:75:ea:6e:e9:3c:34:89:
        9c:18:45:33:91:e2:c1:27:57:3f:79:aa:ca:d6:a8:7a:7a:42:
        45:f1:74:51:bd:14:f1:e2:e0:de:ba:39:7d:97:6f:94:ed:1e:
        00:c6:33:1a:c9:4f:06:c7:fb:b5:5d:b0:98:97:2e:45:9b:78:
        bb:a8:cc:ab:fc:06:ca:e1:2d:16:22:66:49:7e:55:62:2b:37:
        23:9c:2b:b6:a8:da:c0:fe:0f:76:24:08:10:38:24:ae:0e:16:
        17:e1:c5:8e:37:0f:6b:26:7b:b6:84:41:58:eb:4b:e5:2f:12:
        3b:88:00:b3:74:00:fe:a0:3b:60:0c:89:43:83:3c:1a:e3:b0:
        f2:37:36:93:78:d1:55:2f:55:4f:87:b2:9d:53:96:ab:ed:87:
        f0:18:01:2b:86:4f:6c:ad:33:96:1d:71:29:bb:27:06:86:03:
        02:20:3a:ff:17:3d:44:06:7a:6e:76:c8:c1:2f:cf:24:91:0b:
        86:72:4d:d7:5f:89:90:24:79:32:e6:6e:1f:92:31:56:c7:5d:
        73:a4:51:e1:33:f9:fb:e6:43:82:fe:b1:cd:d1:13:cb:be:33:
        c8:37:d4:b3
-----BEGIN CERTIFICATE REQUEST-----
MIIDcDCCAlgCAQAwaDELMAkGA1UEBhMCVUsxEDAOBgNVBAgMB0VuZ2xhbmQxDzAN
BgNVBAcMBkxvbmRvbjEVMBMGA1UEAwwMdGVzdC5waHAubmV0MR8wHQYJKoZIhvcN
AQkBFhB0ZXN0LnBocEBwaHAubmV0MIIBIjANBgkqhkiG9w0BAQEFAAOCAQ8AMIIB
CgKCAQEArbUmVW1Y+rJzZRC3DYB0kdIgvk7MAday78ybGPPDhVlbAb4CjWbaPs4n
yUCTEt9KVG0H7pXHxDbWSsC2974zdvqlP0L2op1/M2SteTcGCBOdwGH2jORVAZL8
/WbTOf9IpKAM77oN14scsyOlQBJqhh+xrLg8ksB2dOos54yDqo0Tq7R5tldV+alK
ZXWlJnqRCfFuxvqtfWI5nGTAedVZhvjQfLQQgujfXHoFWoGbXn2buzfwKGJEeqWP
bQOZF/FeOJPlgOBhhDb3BAFNVCtM3k71Rblj54pNd3yvq152xsgFd0o3s15fuSwZ
gerUjeEuw/wTK9k7vyp+MrIQHQmPdQIDAQABoIHCMAkGA1UECTECDAAwCQYDVQQX
MQIMADAMBgNVBBExBQwDTjExMBIGA1UEFDELDAkwMTIzNDU2NzgwFQYDVQQpMQ4M
DE9yZ2FuaXNhdGlvbjAZBgsrBgEEAdgOiH4CATEKDAgxMTExMjIyMjAZBgsrBgEE
AdgOiH4CAjEKDAgxMjM0NTY3ODAaBgkqhkiG9w0BCQ4xDTALMAkGA1UdEwQCMAAw
HwYJKoZIhvcNAQkBMRIWEGluZm9AZXhhbXBsZS5jb20wDQYJKoZIhvcNAQELBQAD
ggEBAAoPI/sWY0QKPMEBuRp6MHcvWgSExwkkQfRJQZlYdepu6Tw0iZwYRTOR4sEn
Vz95qsrWqHp6QkXxdFG9FPHi4N66OX2Xb5TtHgDGMxrJTwbH+7VdsJiXLkWbeLuo
zKv8BsrhLRYiZkl+VWIrNyOcK7ao2sD+D3YkCBA4JK4OFhfhxY43D2sme7aEQVjr
S+UvEjuIALN0AP6gO2AMiUODPBrjsPI3NpN40VUvVU+Hsp1Tlqvth/AYASuGT2yt
M5YdcSm7JwaGAwIgOv8XPUQGem52yMEvzySRC4ZyTddfiZAkeTLmbh+SMVbHXXOk
UeEz+fvmQ4L+sc3RE8u+M8g31LM=
-----END CERTIFICATE REQUEST-----
